; Function Attrs: nounwind uwtable
define i32 @wolfSSL_GetMaxOutputSize(ptr noundef %0) local_unnamed_addr #0 {
  %2 = icmp eq ptr %0, null
  br i1 %2, label %8, label %3

3:                                                ; preds = %1
  %4 = getelementptr inbounds nuw i8, ptr %0, i64 1045
  %5 = load i8, ptr %4, align 1, !tbaa !147
  %.not = icmp eq i8 %5, 16
  br i1 %.not, label %6, label %8

6:                                                ; preds = %3
  %7 = tail call i32 @wolfSSL_GetMaxFragSize(ptr noundef nonnull %0, i32 noundef 16384) #22
  br label %8

8:                                                ; preds = %3, %1, %6
  %.0 = phi i32 [ %7, %6 ], [ -173, %1 ], [ -173, %3 ]
  ret i32 %.0
}